target datalayout = "e-m:e-p270:32:32-p271:32:32-p272:64:64-i64:64-i128:128-f80:128-n8:16:32:64-S128"
target triple = "x86_64-unknown-linux-gnu"

@_ZZN6hermes2vm17sampling_profiler7Sampler3getEvE8instance = internal global ptr null, align 8
@_ZGVZN6hermes2vm17sampling_profiler7Sampler3getEvE8instance = internal global i64 0, align 8

; Function Attrs: mustprogress nounwind uwtable
define hidden noundef ptr @_ZN6hermes2vm17sampling_profiler7Sampler3getEv() #0 align 2 {
entry:
  %0 = load atomic i8, ptr @_ZGVZN6hermes2vm17sampling_profiler7Sampler3getEvE8instance acquire, align 8
  %guard.uninitialized = icmp eq i8 %0, 0
  br i1 %guard.uninitialized, label %init.check, label %init.end, !prof !4

init.check:                                       ; preds = %entry
  %1 = call i32 @__cxa_guard_acquire(ptr @_ZGVZN6hermes2vm17sampling_profiler7Sampler3getEvE8instance) #1
  %tobool = icmp ne i32 %1, 0
  br i1 %tobool, label %init, label %init.end

init:                                             ; preds = %init.check
  %call = call noalias noundef nonnull ptr @_Znwm(i64 noundef 248) #11
  call void @_ZN6hermes2vm17sampling_profiler12_GLOBAL__N_112SamplerPosixC2Ev(ptr noundef nonnull align 8 dereferenceable(248) %call)
  store ptr %call, ptr @_ZZN6hermes2vm17sampling_profiler7Sampler3getEvE8instance, align 8
  call void @__cxa_guard_release(ptr @_ZGVZN6hermes2vm17sampling_profiler7Sampler3getEvE8instance) #1
  br label %init.end

init.end:                                         ; preds = %init, %init.check, %entry
  %2 = load ptr, ptr @_ZZN6hermes2vm17sampling_profiler7Sampler3getEvE8instance, align 8
  ret ptr %2
}

; Function Attrs: mustprogress nounwind uwtable
define internal void @_ZN6hermes2vm17sampling_profiler12_GLOBAL__N_121SamplingProfilerPosixD2Ev(ptr noundef nonnull align 8 dereferenceable(264) %this) unnamed_addr #0 align 2 {
entry:
  %this.addr = alloca ptr, align 8
  store ptr %this, ptr %this.addr, align 8
  %this1 = load ptr, ptr %this.addr, align 8
  store ptr getelementptr inbounds ({ [4 x ptr] }, ptr @_ZTVN6hermes2vm17sampling_profiler12_GLOBAL__N_121SamplingProfilerPosixE, i32 0, i32 0, i32 2), ptr %this1, align 8
  %call = call noundef ptr @_ZN6hermes2vm17sampling_profiler7Sampler3getEv()
  call void @_ZN6hermes2vm17sampling_profiler7Sampler17unregisterRuntimeEPNS0_16SamplingProfilerE(ptr noundef nonnull align 8 dereferenceable(208) %call, ptr noundef %this1)
  call void @_ZN6hermes2vm16SamplingProfilerD2Ev(ptr noundef nonnull align 8 dereferenceable(256) %this1) #1
  ret void
}

; Function Attrs: mustprogress nounwind uwtable
define internal void @_ZN6hermes2vm17sampling_profiler12_GLOBAL__N_121SamplingProfilerPosixD0Ev(ptr noundef nonnull align 8 dereferenceable(264) %this) unnamed_addr #0 align 2 {
entry:
  %this.addr = alloca ptr, align 8
  store ptr %this, ptr %this.addr, align 8
  %this1 = load ptr, ptr %this.addr, align 8
  call void @_ZN6hermes2vm17sampling_profiler12_GLOBAL__N_121SamplingProfilerPosixD2Ev(ptr noundef nonnull align 8 dereferenceable(264) %this1) #1
  call void @_ZdlPv(ptr noundef %this1) #13
  ret void
}